(dp0
S'_AgentService:AgentInfo'
p1
(dp2
S'com.plexapp.agents.fanarttv'
p3
(lp4
(dp5
S'media_types'
p6
(lp7
S'Movie'
p8
asS'accepts_from'
p9
NsS'fallback_agent'
p10
NsS'contributes_to'
p11
(lp12
S'com.plexapp.agents.imdb'
p13
aS'com.plexapp.agents.themoviedb'
p14
asS'has_attribution'
p15
I01
sS'languages'
p16
(lp17
S'xn'
p18
asS'persist_stored_files'
p19
I01
sS'version'
p20
I0
sS'primary_provider'
p21
I00
sS'prefs'
p22
I01
sS'name'
p23
S'Fanart.tv'
p24
sa(dp25
S'media_types'
p26
(lp27
S'TV_Show'
p28
asS'accepts_from'
p29
NsS'fallback_agent'
p30
NsS'contributes_to'
p31
(lp32
S'com.plexapp.agents.thetvdb'
p33
aS'com.plexapp.agents.themoviedb'
p34
asg15
I01
sS'languages'
p35
(lp36
S'xn'
p37
asS'persist_stored_files'
p38
I01
sS'version'
p39
I0
sS'primary_provider'
p40
I00
sS'prefs'
p41
I01
sS'name'
p42
S'Fanart.tv'
p43
sa(dp44
S'media_types'
p45
(lp46
S'Artist'
p47
asS'accepts_from'
p48
NsS'fallback_agent'
p49
NsS'contributes_to'
p50
(lp51
S'com.plexapp.agents.lastfm'
p52
asg15
I01
sS'languages'
p53
(lp54
S'xn'
p55
asS'persist_stored_files'
p56
I01
sS'version'
p57
I0
sS'primary_provider'
p58
I00
sS'prefs'
p59
I01
sS'name'
p60
S'Fanart.tv'
p61
sa(dp62
S'media_types'
p63
(lp64
S'Album'
p65
asS'accepts_from'
p66
NsS'fallback_agent'
p67
NsS'contributes_to'
p68
(lp69
S'com.plexapp.agents.lastfm'
p70
asg15
I01
sS'languages'
p71
(lp72
S'xn'
p73
asS'persist_stored_files'
p74
I01
sS'version'
p75
I0
sS'primary_provider'
p76
I00
sS'prefs'
p77
I01
sS'name'
p78
S'Fanart.tv'
p79
sasS'com.plexapp.agents.none'
p80
(lp81
(dp82
S'media_types'
p83
(lp84
S'Movie'
p85
asS'accepts_from'
p86
NsS'fallback_agent'
p87
NsS'contributes_to'
p88
Nsg15
I00
sS'languages'
p89
(lp90
S'xn'
p91
asS'persist_stored_files'
p92
I01
sS'version'
p93
I0
sS'primary_provider'
p94
I01
sS'prefs'
p95
I00
sS'name'
p96
S'Personal Media'
p97
sa(dp98
S'media_types'
p99
(lp100
S'TV_Show'
p101
asS'accepts_from'
p102
NsS'fallback_agent'
p103
NsS'contributes_to'
p104
Nsg15
I00
sS'languages'
p105
(lp106
S'xn'
p107
asS'persist_stored_files'
p108
I01
sS'version'
p109
I0
sS'primary_provider'
p110
I01
sS'prefs'
p111
I00
sS'name'
p112
S'Personal Media Shows'
p113
sa(dp114
S'media_types'
p115
(lp116
S'Artist'
p117
asS'accepts_from'
p118
NsS'fallback_agent'
p119
NsS'contributes_to'
p120
Nsg15
I00
sS'languages'
p121
(lp122
S'xn'
p123
asS'persist_stored_files'
p124
I01
sS'version'
p125
I0
sS'primary_provider'
p126
I01
sS'prefs'
p127
I00
sS'name'
p128
S'Personal Media Artists'
p129
sa(dp130
S'media_types'
p131
(lp132
S'Album'
p133
asS'accepts_from'
p134
NsS'fallback_agent'
p135
NsS'contributes_to'
p136
Nsg15
I00
sS'languages'
p137
(lp138
S'xn'
p139
asS'persist_stored_files'
p140
I01
sS'version'
p141
I0
sS'primary_provider'
p142
I01
sS'prefs'
p143
I00
sS'name'
p144
S'Personal Media Albums'
p145
sa(dp146
S'media_types'
p147
(lp148
S'Photo'
p149
asS'accepts_from'
p150
NsS'fallback_agent'
p151
NsS'contributes_to'
p152
Nsg15
I00
sS'languages'
p153
(lp154
S'en'
p155
aS'ar'
p156
aS'bg'
p157
aS'ca'
p158
aS'cs'
p159
aS'cy'
p160
aS'da'
p161
aS'de'
p162
aS'el'
p163
aS'es'
p164
aS'et'
p165
aS'fa'
p166
aS'fi'
p167
aS'fr'
p168
aS'he'
p169
aS'hi'
p170
aS'hr'
p171
aS'ht'
p172
aS'hu'
p173
aS'id'
p174
aS'it'
p175
aS'ja'
p176
aS'ko'
p177
aS'lt'
p178
aS'lv'
p179
aS'ms'
p180
aS'mt'
p181
aS'nl'
p182
aS'no'
p183
aS'pl'
p184
aS'pt'
p185
aS'ro'
p186
aS'ru'
p187
aS'sk'
p188
aS'sv'
p189
aS'sl'
p190
aS'sr'
p191
aS'th'
p192
aS'tr'
p193
aS'uk'
p194
aS'ur'
p195
aS'vi'
p196
aS'zh'
p197
aS'xn'
p198
asS'persist_stored_files'
p199
I01
sS'version'
p200
I0
sS'primary_provider'
p201
I01
sS'prefs'
p202
I00
sS'name'
p203
S'Photos'
p204
sasS'tv.plex.agents.music'
p205
(lp206
(dp207
S'media_types'
p208
(lp209
S'Artist'
p210
asS'accepts_from'
p211
NsS'fallback_agent'
p212
NsS'contributes_to'
p213
Nsg15
I01
sS'languages'
p214
(lp215
S'en'
p216
aS'ar'
p217
aS'bg'
p218
aS'zh'
p219
aS'hr'
p220
aS'cs'
p221
aS'da'
p222
aS'nl'
p223
aS'fi'
p224
aS'fr'
p225
aS'de'
p226
aS'el'
p227
aS'hu'
p228
aS'id'
p229
aS'it'
p230
aS'ja'
p231
aS'ko'
p232
aS'nn'
p233
aS'pl'
p234
aS'pt'
p235
aS'ro'
p236
aS'ru'
p237
aS'sr'
p238
aS'sk'
p239
aS'es'
p240
aS'sv'
p241
aS'th'
p242
aS'tr'
p243
aS'vi'
p244
aS'xx'
p245
asS'persist_stored_files'
p246
I01
sS'version'
p247
I0
sS'primary_provider'
p248
I01
sS'prefs'
p249
I01
sS'name'
p250
S'Plex Music'
p251
sa(dp252
S'media_types'
p253
(lp254
S'Album'
p255
asS'accepts_from'
p256
NsS'fallback_agent'
p257
NsS'contributes_to'
p258
Nsg15
I01
sS'languages'
p259
g215
sS'persist_stored_files'
p260
I01
sS'version'
p261
I0
sS'primary_provider'
p262
I01
sS'prefs'
p263
I01
sS'name'
p264
S'Plex Music'
p265
sasS'com.plexapp.agents.opensubtitles'
p266
(lp267
(dp268
S'media_types'
p269
(lp270
S'Movie'
p271
asS'accepts_from'
p272
NsS'fallback_agent'
p273
NsS'contributes_to'
p274
(lp275
S'com.plexapp.agents.imdb'
p276
asg15
I00
sS'languages'
p277
(lp278
S'xn'
p279
asS'persist_stored_files'
p280
I01
sS'version'
p281
I0
sS'primary_provider'
p282
I00
sS'prefs'
p283
I01
sS'name'
p284
S'OpenSubtitles.org'
p285
sa(dp286
S'media_types'
p287
(lp288
S'TV_Show'
p289
asS'accepts_from'
p290
NsS'fallback_agent'
p291
NsS'contributes_to'
p292
(lp293
S'com.plexapp.agents.thetvdb'
p294
asg15
I00
sS'languages'
p295
(lp296
S'xn'
p297
asS'persist_stored_files'
p298
I01
sS'version'
p299
I0
sS'primary_provider'
p300
I00
sS'prefs'
p301
I01
sS'name'
p302
S'OpenSubtitles.org'
p303
sasS'com.plexapp.agents.imdb'
p304
(lp305
(dp306
S'media_types'
p307
(lp308
S'Movie'
p309
asS'primary_provider'
p310
I01
sS'fallback_agent'
p311
NsS'contributes_to'
p312
(lp313
S'com.plexapp.agents.themoviedb'
p314
asS'has_attribution'
p315
I01
sS'languages'
p316
(lp317
S'en'
p318
aS'sv'
p319
aS'fr'
p320
aS'es'
p321
aS'nl'
p322
aS'de'
p323
aS'it'
p324
aS'da'
p325
aS'ar'
p326
aS'ca'
p327
aS'zh'
p328
aS'cs'
p329
aS'et'
p330
aS'fi'
p331
aS'el'
p332
aS'he'
p333
aS'hi'
p334
aS'hu'
p335
aS'id'
p336
aS'ja'
p337
aS'ko'
p338
aS'lv'
p339
aS'no'
p340
aS'fa'
p341
aS'pl'
p342
aS'pt'
p343
aS'ro'
p344
aS'ru'
p345
aS'sk'
p346
aS'th'
p347
aS'tr'
p348
aS'uk'
p349
aS'vi'
p350
asS'persist_stored_files'
p351
I01
sS'version'
p352
I0
sS'accepts_from'
p353
(lp354
S'com.plexapp.agents.localmedia'
p355
asS'prefs'
p356
I01
sS'name'
p357
S'Plex Movie'
p358
sasS'com.plexapp.agents.lyricfind'
p359
(lp360
(dp361
S'media_types'
p362
(lp363
S'Album'
p364
asS'accepts_from'
p365
NsS'fallback_agent'
p366
NsS'contributes_to'
p367
(lp368
S'com.plexapp.agents.lastfm'
p369
aS'tv.plex.agents.music'
p370
aS'org.musicbrainz.agents.music'
p371
asg15
I01
sS'languages'
p372
(lp373
S'xn'
p374
asS'persist_stored_files'
p375
I01
sS'version'
p376
I0
sS'primary_provider'
p377
I00
sS'prefs'
p378
I00
sS'name'
p379
S'LyricFind'
p380
sasS'com.plexapp.agents.thetvdb'
p381
(lp382
(dp383
S'media_types'
p384
(lp385
S'TV_Show'
p386
asS'accepts_from'
p387
NsS'fallback_agent'
p388
NsS'contributes_to'
p389
Nsg15
I01
sS'languages'
p390
(lp391
S'en'
p392
aS'fr'
p393
aS'zh'
p394
aS'sv'
p395
aS'no'
p396
aS'da'
p397
aS'fi'
p398
aS'nl'
p399
aS'de'
p400
aS'it'
p401
aS'es'
p402
aS'pl'
p403
aS'hu'
p404
aS'el'
p405
aS'tr'
p406
aS'ru'
p407
aS'he'
p408
aS'ja'
p409
aS'pt'
p410
aS'cs'
p411
aS'ko'
p412
aS'sl'
p413
aS'hr'
p414
asS'persist_stored_files'
p415
I01
sS'version'
p416
I0
sS'primary_provider'
p417
I01
sS'prefs'
p418
I01
sS'name'
p419
S'TheTVDB'
p420
sasS'tv.plex.agents.movie'
p421
(lp422
(dp423
S'media_types'
p424
(lp425
S'Movie'
p426
asS'accepts_from'
p427
NsS'fallback_agent'
p428
NsS'contributes_to'
p429
Nsg15
I01
sS'languages'
p430
(lp431
sS'persist_stored_files'
p432
I01
sS'version'
p433
I0
sS'primary_provider'
p434
I01
sS'prefs'
p435
I01
sS'name'
p436
S'Plex Movie'
p437
sasS'tv.plex.agents.series'
p438
(lp439
(dp440
S'media_types'
p441
(lp442
S'TV_Show'
p443
asS'accepts_from'
p444
NsS'fallback_agent'
p445
NsS'contributes_to'
p446
Nsg15
I01
sS'languages'
p447
(lp448
sS'persist_stored_files'
p449
I01
sS'version'
p450
I0
sS'primary_provider'
p451
I01
sS'prefs'
p452
I01
sS'name'
p453
S'Plex TV Series'
p454
sasS'com.plexapp.agents.lastfm'
p455
(lp456
(dp457
S'media_types'
p458
(lp459
S'Artist'
p460
asS'accepts_from'
p461
NsS'fallback_agent'
p462
NsS'contributes_to'
p463
Nsg15
I01
sS'languages'
p464
(lp465
S'en'
p466
aS'sv'
p467
aS'fr'
p468
aS'es'
p469
aS'de'
p470
aS'pl'
p471
aS'it'
p472
aS'pt'
p473
aS'ja'
p474
aS'tr'
p475
aS'ru'
p476
aS'zh'
p477
asS'persist_stored_files'
p478
I01
sS'version'
p479
I0
sS'primary_provider'
p480
I01
sS'prefs'
p481
I01
sS'name'
p482
S'Last.fm'
p483
sa(dp484
S'media_types'
p485
(lp486
S'Album'
p487
asS'accepts_from'
p488
NsS'fallback_agent'
p489
NsS'contributes_to'
p490
Nsg15
I01
sS'languages'
p491
(lp492
S'en'
p493
aS'sv'
p494
aS'fr'
p495
aS'es'
p496
aS'de'
p497
aS'pl'
p498
aS'it'
p499
aS'pt'
p500
aS'ja'
p501
aS'tr'
p502
aS'ru'
p503
aS'zh'
p504
asS'persist_stored_files'
p505
I01
sS'version'
p506
I0
sS'primary_provider'
p507
I01
sS'prefs'
p508
I01
sS'name'
p509
S'Last.fm'
p510
sasS'org.musicbrainz.agents.music'
p511
(lp512
(dp513
S'media_types'
p514
(lp515
S'Artist'
p516
asS'accepts_from'
p517
NsS'fallback_agent'
p518
NsS'contributes_to'
p519
Nsg15
I01
sS'languages'
p520
(lp521
S'en'
p522
aS'ar'
p523
aS'bg'
p524
aS'zh'
p525
aS'hr'
p526
aS'cs'
p527
aS'da'
p528
aS'nl'
p529
aS'fi'
p530
aS'fr'
p531
aS'de'
p532
aS'el'
p533
aS'hu'
p534
aS'id'
p535
aS'it'
p536
aS'ja'
p537
aS'ko'
p538
aS'nn'
p539
aS'pl'
p540
aS'pt'
p541
aS'ro'
p542
aS'ru'
p543
aS'sr'
p544
aS'sk'
p545
aS'es'
p546
aS'sv'
p547
aS'th'
p548
aS'tr'
p549
aS'vi'
p550
aS'xx'
p551
asS'persist_stored_files'
p552
I01
sS'version'
p553
I0
sS'primary_provider'
p554
I01
sS'prefs'
p555
I01
sS'name'
p556
S'Musicbrainz'
p557
sa(dp558
S'media_types'
p559
(lp560
S'Album'
p561
asS'accepts_from'
p562
NsS'fallback_agent'
p563
NsS'contributes_to'
p564
Nsg15
I01
sS'languages'
p565
g521
sS'persist_stored_files'
p566
I01
sS'version'
p567
I0
sS'primary_provider'
p568
I01
sS'prefs'
p569
I01
sS'name'
p570
S'Musicbrainz'
p571
sasS'com.plexapp.agents.themoviedb'
p572
(lp573
(dp574
S'media_types'
p575
(lp576
S'Movie'
p577
asS'accepts_from'
p578
(lp579
S'com.plexapp.agents.localmedia'
p580
asS'fallback_agent'
p581
NsS'contributes_to'
p582
Nsg15
I01
sS'languages'
p583
(lp584
S'en'
p585
aS'cs'
p586
aS'da'
p587
aS'de'
p588
aS'el'
p589
aS'es'
p590
aS'fi'
p591
aS'fr'
p592
aS'he'
p593
aS'hr'
p594
aS'hu'
p595
aS'it'
p596
aS'lv'
p597
aS'lt'
p598
aS'nl'
p599
aS'no'
p600
aS'pl'
p601
aS'pt'
p602
aS'ru'
p603
aS'sk'
p604
aS'sv'
p605
aS'th'
p606
aS'tr'
p607
aS'vi'
p608
aS'zh'
p609
aS'ko'
p610
asS'persist_stored_files'
p611
I01
sS'version'
p612
I0
sS'primary_provider'
p613
I01
sS'prefs'
p614
I01
sS'name'
p615
S'The Movie Database'
p616
sa(dp617
S'media_types'
p618
(lp619
S'TV_Show'
p620
asS'accepts_from'
p621
(lp622
S'com.plexapp.agents.localmedia'
p623
aS'com.plexapp.agents.thetvdb'
p624
asS'fallback_agent'
p625
NsS'contributes_to'
p626
(lp627
S'com.plexapp.agents.thetvdb'
p628
asg15
I01
sS'languages'
p629
g584
sS'persist_stored_files'
p630
I01
sS'version'
p631
I0
sS'primary_provider'
p632
I01
sS'prefs'
p633
I01
sS'name'
p634
S'The Movie Database'
p635
sasS'com.plexapp.agents.localmedia'
p636
(lp637
(dp638
S'media_types'
p639
(lp640
S'Movie'
p641
asS'accepts_from'
p642
NsS'fallback_agent'
p643
NsS'contributes_to'
p644
(lp645
S'com.plexapp.agents.imdb'
p646
aS'com.plexapp.agents.none'
p647
asg15
I00
sS'languages'
p648
(lp649
S'xn'
p650
asS'persist_stored_files'
p651
I00
sS'version'
p652
I0
sS'primary_provider'
p653
I00
sS'prefs'
p654
I01
sS'name'
p655
S'Local Media Assets (Movies)'
p656
sa(dp657
S'media_types'
p658
(lp659
S'TV_Show'
p660
asS'accepts_from'
p661
NsS'fallback_agent'
p662
NsS'contributes_to'
p663
(lp664
S'com.plexapp.agents.thetvdb'
p665
aS'com.plexapp.agents.none'
p666
asg15
I00
sS'languages'
p667
(lp668
S'xn'
p669
asS'persist_stored_files'
p670
I00
sS'version'
p671
I0
sS'primary_provider'
p672
I00
sS'prefs'
p673
I01
sS'name'
p674
S'Local Media Assets (TV)'
p675
sa(dp676
S'media_types'
p677
(lp678
S'Artist'
p679
asS'accepts_from'
p680
NsS'fallback_agent'
p681
NsS'contributes_to'
p682
(lp683
S'com.plexapp.agents.discogs'
p684
aS'com.plexapp.agents.lastfm'
p685
aS'com.plexapp.agents.plexmusic'
p686
aS'com.plexapp.agents.none'
p687
aS'tv.plex.agents.music'
p688
aS'org.musicbrainz.agents.music'
p689
asg15
I00
sS'languages'
p690
(lp691
S'xn'
p692
asS'persist_stored_files'
p693
I00
sS'version'
p694
I0
sS'primary_provider'
p695
I00
sS'prefs'
p696
I01
sS'name'
p697
S'Local Media Assets (Artists)'
p698
sa(dp699
S'media_types'
p700
(lp701
S'Artist'
p702
asS'accepts_from'
p703
NsS'fallback_agent'
p704
NsS'contributes_to'
p705
(lp706
S'com.plexapp.agents.plexmusic'
p707
asg15
I00
sS'languages'
p708
g691
sS'persist_stored_files'
p709
I00
sS'version'
p710
I2
sS'primary_provider'
p711
I00
sS'prefs'
p712
I01
sS'name'
p713
S'Local Media Assets (Artists)'
p714
sa(dp715
S'media_types'
p716
(lp717
S'Album'
p718
asS'accepts_from'
p719
NsS'fallback_agent'
p720
NsS'contributes_to'
p721
(lp722
S'com.plexapp.agents.discogs'
p723
aS'com.plexapp.agents.lastfm'
p724
aS'com.plexapp.agents.plexmusic'
p725
aS'com.plexapp.agents.none'
p726
aS'tv.plex.agents.music'
p727
aS'org.musicbrainz.agents.music'
p728
asg15
I00
sS'languages'
p729
(lp730
S'xn'
p731
asS'persist_stored_files'
p732
I00
sS'version'
p733
I0
sS'primary_provider'
p734
I00
sS'prefs'
p735
I01
sS'name'
p736
S'Local Media Assets (Albums)'
p737
sasS'com.plexapp.agents.movieposterdb'
p738
(lp739
(dp740
S'media_types'
p741
(lp742
S'Movie'
p743
asS'accepts_from'
p744
NsS'fallback_agent'
p745
NsS'contributes_to'
p746
(lp747
S'com.plexapp.agents.imdb'
p748
asg15
I01
sS'languages'
p749
(lp750
S'xn'
p751
asS'persist_stored_files'
p752
I01
sS'version'
p753
I0
sS'primary_provider'
p754
I00
sS'prefs'
p755
I00
sS'name'
p756
S'CineMaterial'
p757
sasS'com.plexapp.agents.htbackdrops'
p758
(lp759
(dp760
S'media_types'
p761
(lp762
S'Artist'
p763
asS'accepts_from'
p764
NsS'fallback_agent'
p765
NsS'contributes_to'
p766
(lp767
S'com.plexapp.agents.lastfm'
p768
asg15
I01
sS'languages'
p769
(lp770
S'ab'
p771
aS'aa'
p772
aS'af'
p773
aS'ak'
p774
aS'sq'
p775
aS'am'
p776
aS'ar'
p777
aS'an'
p778
aS'hy'
p779
aS'as'
p780
aS'av'
p781
aS'ae'
p782
aS'ay'
p783
aS'az'
p784
aS'bm'
p785
aS'ba'
p786
aS'eu'
p787
aS'be'
p788
aS'bn'
p789
aS'bh'
p790
aS'bi'
p791
aS'bs'
p792
aS'pb'
p793
aS'br'
p794
aS'bg'
p795
aS'my'
p796
aS'ca'
p797
aS'ch'
p798
aS'ce'
p799
aS'ny'
p800
aS'zh'
p801
aS'cu'
p802
aS'cv'
p803
aS'kw'
p804
aS'co'
p805
aS'cr'
p806
aS'hr'
p807
aS'cs'
p808
aS'da'
p809
aS'dv'
p810
aS'nl'
p811
aS'dz'
p812
aS'en'
p813
aS'eo'
p814
aS'et'
p815
aS'ee'
p816
aS'fo'
p817
aS'fj'
p818
aS'fi'
p819
aS'fr'
p820
aS'fy'
p821
aS'ff'
p822
aS'gd'
p823
aS'gl'
p824
aS'lg'
p825
aS'ka'
p826
aS'de'
p827
aS'el'
p828
aS'gn'
p829
aS'gu'
p830
aS'ht'
p831
aS'ha'
p832
aS'he'
p833
aS'hz'
p834
aS'hi'
p835
aS'ho'
p836
aS'hu'
p837
aS'is'
p838
aS'io'
p839
aS'ig'
p840
aS'id'
p841
aS'ia'
p842
aS'ie'
p843
aS'iu'
p844
aS'ik'
p845
aS'ga'
p846
aS'it'
p847
aS'ja'
p848
aS'jv'
p849
aS'kl'
p850
aS'kn'
p851
aS'kr'
p852
aS'ks'
p853
aS'kk'
p854
aS'km'
p855
aS'ki'
p856
aS'rw'
p857
aS'ky'
p858
aS'kv'
p859
aS'kg'
p860
aS'ko'
p861
aS'kj'
p862
aS'ku'
p863
aS'lo'
p864
aS'la'
p865
aS'lv'
p866
aS'li'
p867
aS'ln'
p868
aS'lt'
p869
aS'lu'
p870
aS'lb'
p871
aS'mk'
p872
aS'mg'
p873
aS'ms'
p874
aS'ml'
p875
aS'mt'
p876
aS'gv'
p877
aS'mi'
p878
aS'mr'
p879
aS'mh'
p880
aS'mo'
p881
aS'mn'
p882
aS'na'
p883
aS'nv'
p884
aS'ng'
p885
aS'ne'
p886
aS'xn'
p887
aS'nd'
p888
aS'no'
p889
aS'nb'
p890
aS'nn'
p891
aS'oc'
p892
aS'oj'
p893
aS'or'
p894
aS'om'
p895
aS'os'
p896
aS'pi'
p897
aS'pa'
p898
aS'fa'
p899
aS'pl'
p900
aS'pt'
p901
aS'ps'
p902
aS'qu'
p903
aS'rm'
p904
aS'ro'
p905
aS'rn'
p906
aS'ru'
p907
aS'se'
p908
aS'sm'
p909
aS'sg'
p910
aS'sa'
p911
aS'sc'
p912
aS'sr'
p913
aS'sn'
p914
aS'ii'
p915
aS'sd'
p916
aS'si'
p917
aS'sk'
p918
aS'sl'
p919
aS'so'
p920
aS'st'
p921
aS'nr'
p922
aS'es'
p923
aS'su'
p924
aS'sw'
p925
aS'ss'
p926
aS'sv'
p927
aS'tl'
p928
aS'ty'
p929
aS'tg'
p930
aS'ta'
p931
aS'tt'
p932
aS'te'
p933
aS'th'
p934
aS'bo'
p935
aS'ti'
p936
aS'to'
p937
aS'ts'
p938
aS'tn'
p939
aS'tr'
p940
aS'tk'
p941
aS'tw'
p942
aS'ug'
p943
aS'uk'
p944
aS'ur'
p945
aS'uz'
p946
aS've'
p947
aS'vi'
p948
aS'vo'
p949
aS'wa'
p950
aS'cy'
p951
aS'wo'
p952
aS'xh'
p953
aS'yi'
p954
aS'yo'
p955
aS'za'
p956
aS'zu'
p957
asS'persist_stored_files'
p958
I01
sS'version'
p959
I0
sS'primary_provider'
p960
I00
sS'prefs'
p961
I00
sS'name'
p962
S'Home Theater Backdrops'
p963
sasS'com.plexapp.agents.plexthememusic'
p964
(lp965
(dp966
S'media_types'
p967
(lp968
S'TV_Show'
p969
asS'accepts_from'
p970
NsS'fallback_agent'
p971
NsS'contributes_to'
p972
(lp973
S'com.plexapp.agents.thetvdb'
p974
aS'com.plexapp.agents.thetvdbdvdorder'
p975
aS'com.plexapp.agents.themoviedb'
p976
asg15
I00
sS'languages'
p977
(lp978
S'xn'
p979
asS'persist_stored_files'
p980
I01
sS'version'
p981
I0
sS'primary_provider'
p982
I00
sS'prefs'
p983
I00
sS'name'
p984
S'Plex Theme Music'
p985
sass.